target datalayout = "e-m:e-p270:32:32-p271:32:32-p272:64:64-i64:64-i128:128-f80:128-n8:16:32:64-S128"
target triple = "x86_64-pc-linux-gnu"

%struct._object = type { %union.anon, ptr }
%union.anon = type { i64 }
%struct.Parser = type { ptr, ptr, i32, i32, i32, ptr, ptr, ptr, i32, i32, ptr, i32, ptr, i32, i32, i32, i32, i32, %struct.growable_comment_array, ptr, i32, i32, i32 }
%struct.growable_comment_array = type { ptr, i64, i64 }
%struct.anon.0 = type { i32, i32 }
%struct.Token = type { i32, ptr, i32, i32, i32, i32, i32, ptr, ptr }
%struct._ts = type { ptr, ptr, ptr, i64, %struct.anon, i32, i32, i32, i32, i32, i32, i32, i32, ptr, ptr, ptr, ptr, ptr, ptr, ptr, ptr, i32, ptr, i64, i64, ptr, i64, i32, ptr, ptr, ptr, i64, i64, ptr, ptr, ptr, %struct._err_stackitem, ptr, i64, ptr, ptr }
%struct.anon = type { i32 }
%struct._err_stackitem = type { ptr, ptr }

@PyExc_ValueError = external global ptr, align 8
@PyExc_SyntaxError = external global ptr, align 8
@.str.6 = private unnamed_addr constant [77 x i8] c"Underscores in numeric literals are only supported in Python 3.6 and greater\00", align 1
@.str.7 = private unnamed_addr constant [88 x i8] c"%S - Consider hexadecimal for huge integer literals to avoid decimal conversion limits.\00", align 1
@_Py_tss_tstate = external thread_local global ptr, align 8

; Function Attrs: alwaysinline nounwind uwtable
define internal i32 @_Py_IsImmortal(ptr noundef %0) #5 {
  %2 = alloca ptr, align 8
  store ptr %0, ptr %2, align 8, !tbaa !19
  %3 = load ptr, ptr %2, align 8, !tbaa !19
  %4 = getelementptr inbounds nuw %struct._object, ptr %3, i32 0, i32 0
  %5 = getelementptr inbounds nuw %struct.anon.0, ptr %4, i32 0, i32 0
  %6 = load i32, ptr %5, align 8, !tbaa !23
  %7 = icmp slt i32 %6, 0
  %8 = zext i1 %7 to i32
  ret i32 %8
}

; Function Attrs: alwaysinline nounwind uwtable
define internal void @Py_DECREF(ptr noundef %0) #5 {
  %2 = alloca ptr, align 8
  store ptr %0, ptr %2, align 8, !tbaa !19
  %3 = load ptr, ptr %2, align 8, !tbaa !19
  %4 = call i32 @_Py_IsImmortal(ptr noundef %3)
  %5 = icmp ne i32 %4, 0
  br i1 %5, label %6, label %7

6:                                                ; preds = %1
  br label %16

7:                                                ; preds = %1
  %8 = load ptr, ptr %2, align 8, !tbaa !19
  %9 = getelementptr inbounds nuw %struct._object, ptr %8, i32 0, i32 0
  %10 = getelementptr inbounds nuw %struct.anon.0, ptr %9, i32 0, i32 0
  %11 = load i32, ptr %10, align 8, !tbaa !23
  %12 = add i32 %11, -1
  store i32 %12, ptr %10, align 8, !tbaa !23
  %13 = icmp eq i32 %12, 0
  br i1 %13, label %14, label %16

14:                                               ; preds = %7
  %15 = load ptr, ptr %2, align 8, !tbaa !19
  call void @_Py_Dealloc(ptr noundef %15)
  br label %16

16:                                               ; preds = %6, %14, %7
  ret void
}

; Function Attrs: inlinehint nounwind uwtable
define internal ptr @_Py_TYPE(ptr noundef %0) #4 {
  %2 = alloca ptr, align 8
  store ptr %0, ptr %2, align 8, !tbaa !19
  %3 = load ptr, ptr %2, align 8, !tbaa !19
  %4 = getelementptr inbounds nuw %struct._object, ptr %3, i32 0, i32 1
  %5 = load ptr, ptr %4, align 8, !tbaa !99
  ret ptr %5
}

; Function Attrs: inlinehint nounwind uwtable
define internal ptr @_PyThreadState_GET() #4 {
  %1 = call align 8 ptr @llvm.threadlocal.address.p0(ptr align 8 @_Py_tss_tstate)
  %2 = load ptr, ptr %1, align 8, !tbaa !100
  ret ptr %2
}

; Function Attrs: nounwind uwtable
define internal ptr @parsenumber(ptr noundef %0) #0 {
  %2 = alloca ptr, align 8
  %3 = alloca ptr, align 8
  %4 = alloca ptr, align 8
  %5 = alloca ptr, align 8
  %6 = alloca ptr, align 8
  %7 = alloca i32, align 4
  store ptr %0, ptr %3, align 8, !tbaa !21
  call void @llvm.lifetime.start.p0(i64 8, ptr %4) #10
  call void @llvm.lifetime.start.p0(i64 8, ptr %5) #10
  call void @llvm.lifetime.start.p0(i64 8, ptr %6) #10
  store ptr null, ptr %6, align 8, !tbaa !19
  %8 = load ptr, ptr %3, align 8, !tbaa !21
  %9 = call ptr @strchr(ptr noundef %8, i32 noundef 95) #11
  %10 = icmp eq ptr %9, null
  br i1 %10, label %11, label %14

11:                                               ; preds = %1
  %12 = load ptr, ptr %3, align 8, !tbaa !21
  %13 = call ptr @parsenumber_raw(ptr noundef %12)
  store ptr %13, ptr %2, align 8
  store i32 1, ptr %7, align 4
  br label %49

14:                                               ; preds = %1
  %15 = load ptr, ptr %3, align 8, !tbaa !21
  %16 = call i64 @strlen(ptr noundef %15) #11
  %17 = add i64 %16, 1
  %18 = call ptr @PyMem_Malloc(i64 noundef %17)
  store ptr %18, ptr %4, align 8, !tbaa !21
  %19 = load ptr, ptr %4, align 8, !tbaa !21
  %20 = icmp eq ptr %19, null
  br i1 %20, label %21, label %23

21:                                               ; preds = %14
  %22 = call ptr @PyErr_NoMemory()
  store ptr %22, ptr %2, align 8
  store i32 1, ptr %7, align 4
  br label %49

23:                                               ; preds = %14
  %24 = load ptr, ptr %4, align 8, !tbaa !21
  store ptr %24, ptr %5, align 8, !tbaa !21
  br label %25

25:                                               ; preds = %40, %23
  %26 = load ptr, ptr %3, align 8, !tbaa !21
  %27 = load i8, ptr %26, align 1, !tbaa !23
  %28 = icmp ne i8 %27, 0
  br i1 %28, label %29, label %43

29:                                               ; preds = %25
  %30 = load ptr, ptr %3, align 8, !tbaa !21
  %31 = load i8, ptr %30, align 1, !tbaa !23
  %32 = sext i8 %31 to i32
  %33 = icmp ne i32 %32, 95
  br i1 %33, label %34, label %39

34:                                               ; preds = %29
  %35 = load ptr, ptr %3, align 8, !tbaa !21
  %36 = load i8, ptr %35, align 1, !tbaa !23
  %37 = load ptr, ptr %5, align 8, !tbaa !21
  %38 = getelementptr i8, ptr %37, i32 1
  store ptr %38, ptr %5, align 8, !tbaa !21
  store i8 %36, ptr %37, align 1, !tbaa !23
  br label %39

39:                                               ; preds = %34, %29
  br label %40

40:                                               ; preds = %39
  %41 = load ptr, ptr %3, align 8, !tbaa !21
  %42 = getelementptr i8, ptr %41, i32 1
  store ptr %42, ptr %3, align 8, !tbaa !21
  br label %25, !llvm.loop !115

43:                                               ; preds = %25
  %44 = load ptr, ptr %5, align 8, !tbaa !21
  store i8 0, ptr %44, align 1, !tbaa !23
  %45 = load ptr, ptr %4, align 8, !tbaa !21
  %46 = call ptr @parsenumber_raw(ptr noundef %45)
  store ptr %46, ptr %6, align 8, !tbaa !19
  %47 = load ptr, ptr %4, align 8, !tbaa !21
  call void @PyMem_Free(ptr noundef %47)
  %48 = load ptr, ptr %6, align 8, !tbaa !19
  store ptr %48, ptr %2, align 8
  store i32 1, ptr %7, align 4
  br label %49

49:                                               ; preds = %43, %21, %11
  call void @llvm.lifetime.end.p0(i64 8, ptr %6) #10
  call void @llvm.lifetime.end.p0(i64 8, ptr %5) #10
  call void @llvm.lifetime.end.p0(i64 8, ptr %4) #10
  %50 = load ptr, ptr %2, align 8
  ret ptr %50
}

; Function Attrs: nounwind uwtable
define hidden ptr @_PyPegen_expect_token(ptr noundef %0, i32 noundef %1) #0 {
  %3 = alloca ptr, align 8
  %4 = alloca ptr, align 8
  %5 = alloca i32, align 4
  %6 = alloca ptr, align 8
  %7 = alloca i32, align 4
  store ptr %0, ptr %4, align 8, !tbaa !4
  store i32 %1, ptr %5, align 4, !tbaa !18
  %8 = load ptr, ptr %4, align 8, !tbaa !4
  %9 = getelementptr inbounds nuw %struct.Parser, ptr %8, i32 0, i32 2
  %10 = load i32, ptr %9, align 8, !tbaa !38
  %11 = load ptr, ptr %4, align 8, !tbaa !4
  %12 = getelementptr inbounds nuw %struct.Parser, ptr %11, i32 0, i32 3
  %13 = load i32, ptr %12, align 4, !tbaa !59
  %14 = icmp eq i32 %10, %13
  br i1 %14, label %15, label %23

15:                                               ; preds = %2
  %16 = load ptr, ptr %4, align 8, !tbaa !4
  %17 = call i32 @_PyPegen_fill_token(ptr noundef %16)
  %18 = icmp slt i32 %17, 0
  br i1 %18, label %19, label %22

19:                                               ; preds = %15
  %20 = load ptr, ptr %4, align 8, !tbaa !4
  %21 = getelementptr inbounds nuw %struct.Parser, ptr %20, i32 0, i32 15
  store i32 1, ptr %21, align 8, !tbaa !86
  store ptr null, ptr %3, align 8
  br label %46

22:                                               ; preds = %15
  br label %23

23:                                               ; preds = %22, %2
  call void @llvm.lifetime.start.p0(i64 8, ptr %6) #10
  %24 = load ptr, ptr %4, align 8, !tbaa !4
  %25 = getelementptr inbounds nuw %struct.Parser, ptr %24, i32 0, i32 1
  %26 = load ptr, ptr %25, align 8, !tbaa !40
  %27 = load ptr, ptr %4, align 8, !tbaa !4
  %28 = getelementptr inbounds nuw %struct.Parser, ptr %27, i32 0, i32 2
  %29 = load i32, ptr %28, align 8, !tbaa !38
  %30 = sext i32 %29 to i64
  %31 = getelementptr ptr, ptr %26, i64 %30
  %32 = load ptr, ptr %31, align 8, !tbaa !4
  store ptr %32, ptr %6, align 8, !tbaa !4
  %33 = load ptr, ptr %6, align 8, !tbaa !4
  %34 = getelementptr inbounds nuw %struct.Token, ptr %33, i32 0, i32 0
  %35 = load i32, ptr %34, align 8, !tbaa !70
  %36 = load i32, ptr %5, align 4, !tbaa !18
  %37 = icmp ne i32 %35, %36
  br i1 %37, label %38, label %39

38:                                               ; preds = %23
  store ptr null, ptr %3, align 8
  store i32 1, ptr %7, align 4
  br label %45

39:                                               ; preds = %23
  %40 = load ptr, ptr %4, align 8, !tbaa !4
  %41 = getelementptr inbounds nuw %struct.Parser, ptr %40, i32 0, i32 2
  %42 = load i32, ptr %41, align 8, !tbaa !38
  %43 = add i32 %42, 1
  store i32 %43, ptr %41, align 8, !tbaa !38
  %44 = load ptr, ptr %6, align 8, !tbaa !4
  store ptr %44, ptr %3, align 8
  store i32 1, ptr %7, align 4
  br label %45

45:                                               ; preds = %39, %38
  call void @llvm.lifetime.end.p0(i64 8, ptr %6) #10
  br label %46

46:                                               ; preds = %45, %19
  %47 = load ptr, ptr %3, align 8
  ret ptr %47
}

; Function Attrs: nounwind uwtable
define hidden ptr @_PyPegen_number_token(ptr noundef %0) #0 {
  %2 = alloca ptr, align 8
  %3 = alloca ptr, align 8
  %4 = alloca ptr, align 8
  %5 = alloca i32, align 4
  %6 = alloca ptr, align 8
  %7 = alloca ptr, align 8
  %8 = alloca ptr, align 8
  %9 = alloca ptr, align 8
  store ptr %0, ptr %3, align 8, !tbaa !4
  call void @llvm.lifetime.start.p0(i64 8, ptr %4) #10
  %10 = load ptr, ptr %3, align 8, !tbaa !4
  %11 = call ptr @_PyPegen_expect_token(ptr noundef %10, i32 noundef 2)
  store ptr %11, ptr %4, align 8, !tbaa !4
  %12 = load ptr, ptr %4, align 8, !tbaa !4
  %13 = icmp eq ptr %12, null
  br i1 %13, label %14, label %15

14:                                               ; preds = %1
  store ptr null, ptr %2, align 8
  store i32 1, ptr %5, align 4
  br label %107

15:                                               ; preds = %1
  call void @llvm.lifetime.start.p0(i64 8, ptr %6) #10
  %16 = load ptr, ptr %4, align 8, !tbaa !4
  %17 = getelementptr inbounds nuw %struct.Token, ptr %16, i32 0, i32 1
  %18 = load ptr, ptr %17, align 8, !tbaa !72
  %19 = call ptr @PyBytes_AsString(ptr noundef %18)
  store ptr %19, ptr %6, align 8, !tbaa !21
  %20 = load ptr, ptr %6, align 8, !tbaa !21
  %21 = icmp eq ptr %20, null
  br i1 %21, label %22, label %25

22:                                               ; preds = %15
  %23 = load ptr, ptr %3, align 8, !tbaa !4
  %24 = getelementptr inbounds nuw %struct.Parser, ptr %23, i32 0, i32 15
  store i32 1, ptr %24, align 8, !tbaa !86
  store ptr null, ptr %2, align 8
  store i32 1, ptr %5, align 4
  br label %106

25:                                               ; preds = %15
  %26 = load ptr, ptr %3, align 8, !tbaa !4
  %27 = getelementptr inbounds nuw %struct.Parser, ptr %26, i32 0, i32 17
  %28 = load i32, ptr %27, align 8, !tbaa !113
  %29 = icmp slt i32 %28, 6
  br i1 %29, label %30, label %40

30:                                               ; preds = %25
  %31 = load ptr, ptr %6, align 8, !tbaa !21
  %32 = call ptr @strchr(ptr noundef %31, i32 noundef 95) #11
  %33 = icmp ne ptr %32, null
  br i1 %33, label %34, label %40

34:                                               ; preds = %30
  %35 = load ptr, ptr %3, align 8, !tbaa !4
  %36 = getelementptr inbounds nuw %struct.Parser, ptr %35, i32 0, i32 15
  store i32 1, ptr %36, align 8, !tbaa !86
  %37 = load ptr, ptr %3, align 8, !tbaa !4
  %38 = load ptr, ptr @PyExc_SyntaxError, align 8, !tbaa !19
  %39 = call ptr (ptr, ptr, i32, ptr, ...) @_PyPegen_raise_error(ptr noundef %37, ptr noundef %38, i32 noundef 0, ptr noundef @.str.6)
  store ptr %39, ptr %2, align 8
  store i32 1, ptr %5, align 4
  br label %106

40:                                               ; preds = %30, %25
  call void @llvm.lifetime.start.p0(i64 8, ptr %7) #10
  %41 = load ptr, ptr %6, align 8, !tbaa !21
  %42 = call ptr @parsenumber(ptr noundef %41)
  store ptr %42, ptr %7, align 8, !tbaa !19
  %43 = load ptr, ptr %7, align 8, !tbaa !19
  %44 = icmp eq ptr %43, null
  br i1 %44, label %45, label %76

45:                                               ; preds = %40
  %46 = load ptr, ptr %3, align 8, !tbaa !4
  %47 = getelementptr inbounds nuw %struct.Parser, ptr %46, i32 0, i32 15
  store i32 1, ptr %47, align 8, !tbaa !86
  call void @llvm.lifetime.start.p0(i64 8, ptr %8) #10
  %48 = call ptr @_PyThreadState_GET()
  store ptr %48, ptr %8, align 8, !tbaa !100
  %49 = load ptr, ptr %8, align 8, !tbaa !100
  %50 = getelementptr inbounds nuw %struct._ts, ptr %49, i32 0, i32 18
  %51 = load ptr, ptr %50, align 8, !tbaa !114
  %52 = icmp ne ptr %51, null
  br i1 %52, label %53, label %75

53:                                               ; preds = %45
  %54 = load ptr, ptr %8, align 8, !tbaa !100
  %55 = getelementptr inbounds nuw %struct._ts, ptr %54, i32 0, i32 18
  %56 = load ptr, ptr %55, align 8, !tbaa !114
  %57 = call ptr @_Py_TYPE(ptr noundef %56)
  %58 = load ptr, ptr @PyExc_ValueError, align 8, !tbaa !19
  %59 = icmp eq ptr %57, %58
  br i1 %59, label %60, label %75

60:                                               ; preds = %53
  call void @llvm.lifetime.start.p0(i64 8, ptr %9) #10
  %61 = call ptr @PyErr_GetRaisedException()
  store ptr %61, ptr %9, align 8, !tbaa !19
  %62 = load ptr, ptr %3, align 8, !tbaa !4
  %63 = load ptr, ptr @PyExc_SyntaxError, align 8, !tbaa !19
  %64 = load ptr, ptr %4, align 8, !tbaa !4
  %65 = getelementptr inbounds nuw %struct.Token, ptr %64, i32 0, i32 3
  %66 = load i32, ptr %65, align 4, !tbaa !78
  %67 = sext i32 %66 to i64
  %68 = load ptr, ptr %4, align 8, !tbaa !4
  %69 = getelementptr inbounds nuw %struct.Token, ptr %68, i32 0, i32 5
  %70 = load i32, ptr %69, align 4, !tbaa !83
  %71 = sext i32 %70 to i64
  %72 = load ptr, ptr %9, align 8, !tbaa !19
  %73 = call ptr (ptr, ptr, i64, i64, i64, i64, ptr, ...) @RAISE_ERROR_KNOWN_LOCATION(ptr noundef %62, ptr noundef %63, i64 noundef %67, i64 noundef -1, i64 noundef %71, i64 noundef -1, ptr noundef @.str.7, ptr noundef %72)
  %74 = load ptr, ptr %9, align 8, !tbaa !19
  call void @Py_DECREF(ptr noundef %74)
  call void @llvm.lifetime.end.p0(i64 8, ptr %9) #10
  br label %75

75:                                               ; preds = %60, %53, %45
  store ptr null, ptr %2, align 8
  store i32 1, ptr %5, align 4
  call void @llvm.lifetime.end.p0(i64 8, ptr %8) #10
  br label %105

76:                                               ; preds = %40
  %77 = load ptr, ptr %3, align 8, !tbaa !4
  %78 = getelementptr inbounds nuw %struct.Parser, ptr %77, i32 0, i32 5
  %79 = load ptr, ptr %78, align 8, !tbaa !32
  %80 = load ptr, ptr %7, align 8, !tbaa !19
  %81 = call i32 @_PyArena_AddPyObject(ptr noundef %79, ptr noundef %80)
  %82 = icmp slt i32 %81, 0
  br i1 %82, label %83, label %87

83:                                               ; preds = %76
  %84 = load ptr, ptr %7, align 8, !tbaa !19
  call void @Py_DECREF(ptr noundef %84)
  %85 = load ptr, ptr %3, align 8, !tbaa !4
  %86 = getelementptr inbounds nuw %struct.Parser, ptr %85, i32 0, i32 15
  store i32 1, ptr %86, align 8, !tbaa !86
  store ptr null, ptr %2, align 8
  store i32 1, ptr %5, align 4
  br label %105

87:                                               ; preds = %76
  %88 = load ptr, ptr %7, align 8, !tbaa !19
  %89 = load ptr, ptr %4, align 8, !tbaa !4
  %90 = getelementptr inbounds nuw %struct.Token, ptr %89, i32 0, i32 3
  %91 = load i32, ptr %90, align 4, !tbaa !78
  %92 = load ptr, ptr %4, align 8, !tbaa !4
  %93 = getelementptr inbounds nuw %struct.Token, ptr %92, i32 0, i32 4
  %94 = load i32, ptr %93, align 8, !tbaa !81
  %95 = load ptr, ptr %4, align 8, !tbaa !4
  %96 = getelementptr inbounds nuw %struct.Token, ptr %95, i32 0, i32 5
  %97 = load i32, ptr %96, align 4, !tbaa !83
  %98 = load ptr, ptr %4, align 8, !tbaa !4
  %99 = getelementptr inbounds nuw %struct.Token, ptr %98, i32 0, i32 6
  %100 = load i32, ptr %99, align 8, !tbaa !84
  %101 = load ptr, ptr %3, align 8, !tbaa !4
  %102 = getelementptr inbounds nuw %struct.Parser, ptr %101, i32 0, i32 5
  %103 = load ptr, ptr %102, align 8, !tbaa !32
  %104 = call ptr @_PyAST_Constant(ptr noundef %88, ptr noundef null, i32 noundef %91, i32 noundef %94, i32 noundef %97, i32 noundef %100, ptr noundef %103)
  store ptr %104, ptr %2, align 8
  store i32 1, ptr %5, align 4
  br label %105

105:                                              ; preds = %87, %83, %75
  call void @llvm.lifetime.end.p0(i64 8, ptr %7) #10
  br label %106

106:                                              ; preds = %105, %34, %22
  call void @llvm.lifetime.end.p0(i64 8, ptr %6) #10
  br label %107

107:                                              ; preds = %106, %14
  call void @llvm.lifetime.end.p0(i64 8, ptr %4) #10
  %108 = load ptr, ptr %2, align 8
  ret ptr %108
}