; Function Attrs: nounwind uwtable
define hidden ptr @_PyPegen_number_token(ptr noundef %0) local_unnamed_addr #1 {
  %2 = getelementptr inbounds nuw i8, ptr %0, i64 16
  %3 = load i32, ptr %2, align 8, !tbaa !33
  %4 = getelementptr inbounds nuw i8, ptr %0, i64 20
  %5 = load i32, ptr %4, align 4, !tbaa !62
  %6 = icmp eq i32 %3, %5
  br i1 %6, label %7, label %12

7:                                                ; preds = %1
  %8 = tail call i32 @_PyPegen_fill_token(ptr noundef nonnull %0)
  %9 = icmp slt i32 %8, 0
  br i1 %9, label %10, label %._crit_edge.i

._crit_edge.i:                                    ; preds = %7
  %.pre.i = load i32, ptr %2, align 8, !tbaa !33
  br label %12

10:                                               ; preds = %7
  %11 = getelementptr inbounds nuw i8, ptr %0, i64 96
  store i32 1, ptr %11, align 8, !tbaa !87
  br label %Py_DECREF.exit36

12:                                               ; preds = %._crit_edge.i, %1
  %13 = phi i32 [ %.pre.i, %._crit_edge.i ], [ %3, %1 ]
  %14 = getelementptr inbounds nuw i8, ptr %0, i64 8
  %15 = load ptr, ptr %14, align 8, !tbaa !35
  %16 = sext i32 %13 to i64
  %17 = getelementptr ptr, ptr %15, i64 %16
  %18 = load ptr, ptr %17, align 8, !tbaa !36
  %19 = load i32, ptr %18, align 8, !tbaa !71
  %.not.i38 = icmp eq i32 %19, 2
  br i1 %.not.i38, label %20, label %Py_DECREF.exit36

20:                                               ; preds = %12
  %21 = add i32 %13, 1
  store i32 %21, ptr %2, align 8, !tbaa !33
  %22 = getelementptr inbounds nuw i8, ptr %18, i64 8
  %23 = load ptr, ptr %22, align 8, !tbaa !73
  %24 = tail call ptr @PyBytes_AsString(ptr noundef %23) #13
  %25 = icmp eq ptr %24, null
  br i1 %25, label %26, label %28

26:                                               ; preds = %20
  %27 = getelementptr inbounds nuw i8, ptr %0, i64 96
  store i32 1, ptr %27, align 8, !tbaa !87
  br label %Py_DECREF.exit36

28:                                               ; preds = %20
  %29 = getelementptr inbounds nuw i8, ptr %0, i64 104
  %30 = load i32, ptr %29, align 8, !tbaa !112
  %31 = icmp slt i32 %30, 6
  br i1 %31, label %32, label %38

32:                                               ; preds = %28
  %33 = tail call ptr @strchr(ptr noundef nonnull dereferenceable(1) %24, i32 noundef 95) #14
  %.not = icmp eq ptr %33, null
  br i1 %.not, label %38, label %34

34:                                               ; preds = %32
  %35 = getelementptr inbounds nuw i8, ptr %0, i64 96
  store i32 1, ptr %35, align 8, !tbaa !87
  %36 = load ptr, ptr @PyExc_SyntaxError, align 8, !tbaa !19
  %37 = tail call ptr (ptr, ptr, i32, ptr, ...) @_PyPegen_raise_error(ptr noundef nonnull %0, ptr noundef %36, i32 noundef 0, ptr noundef nonnull @.str.6) #13
  br label %Py_DECREF.exit36

38:                                               ; preds = %32, %28
  %39 = tail call ptr @strchr(ptr noundef nonnull dereferenceable(1) %24, i32 noundef 95) #14
  %40 = icmp eq ptr %39, null
  br i1 %40, label %41, label %43

41:                                               ; preds = %38
  %42 = tail call fastcc ptr @parsenumber_raw(ptr noundef nonnull %24)
  br label %parsenumber.exit

43:                                               ; preds = %38
  %44 = tail call i64 @strlen(ptr noundef nonnull dereferenceable(1) %24) #14
  %45 = add i64 %44, 1
  %46 = tail call ptr @PyMem_Malloc(i64 noundef %45) #13
  %47 = icmp eq ptr %46, null
  br i1 %47, label %48, label %.preheader.i

48:                                               ; preds = %43
  %49 = tail call ptr @PyErr_NoMemory() #13
  br label %parsenumber.exit

.preheader.i:                                     ; preds = %43, %53
  %.016.i = phi ptr [ %54, %53 ], [ %24, %43 ]
  %.0.i39 = phi ptr [ %.1.i, %53 ], [ %46, %43 ]
  %50 = load i8, ptr %.016.i, align 1, !tbaa !18
  switch i8 %50, label %51 [
    i8 0, label %55
    i8 95, label %53
  ]

51:                                               ; preds = %.preheader.i
  %52 = getelementptr i8, ptr %.0.i39, i64 1
  store i8 %50, ptr %.0.i39, align 1, !tbaa !18
  br label %53

53:                                               ; preds = %51, %.preheader.i
  %.1.i = phi ptr [ %52, %51 ], [ %.0.i39, %.preheader.i ]
  %54 = getelementptr i8, ptr %.016.i, i64 1
  br label %.preheader.i, !llvm.loop !113

55:                                               ; preds = %.preheader.i
  store i8 0, ptr %.0.i39, align 1, !tbaa !18
  %56 = tail call fastcc ptr @parsenumber_raw(ptr noundef %46)
  tail call void @PyMem_Free(ptr noundef nonnull %46) #13
  br label %parsenumber.exit

parsenumber.exit:                                 ; preds = %41, %48, %55
  %.015.i = phi ptr [ %42, %41 ], [ %49, %48 ], [ %56, %55 ]
  %57 = icmp eq ptr %.015.i, null
  br i1 %57, label %58, label %82

58:                                               ; preds = %parsenumber.exit
  %59 = getelementptr inbounds nuw i8, ptr %0, i64 96
  store i32 1, ptr %59, align 8, !tbaa !87
  %60 = tail call align 8 ptr @llvm.threadlocal.address.p0(ptr align 8 @_Py_tss_tstate)
  %61 = load ptr, ptr %60, align 8, !tbaa !97
  %62 = getelementptr inbounds nuw i8, ptr %61, i64 112
  %63 = load ptr, ptr %62, align 8, !tbaa !114
  %.not34 = icmp eq ptr %63, null
  br i1 %.not34, label %Py_DECREF.exit36, label %64

64:                                               ; preds = %58
  %65 = getelementptr i8, ptr %63, i64 8
  %.val = load ptr, ptr %65, align 8, !tbaa !90
  %66 = load ptr, ptr @PyExc_ValueError, align 8, !tbaa !19
  %67 = icmp eq ptr %.val, %66
  br i1 %67, label %68, label %Py_DECREF.exit36

68:                                               ; preds = %64
  %69 = tail call ptr @PyErr_GetRaisedException() #13
  %70 = load ptr, ptr @PyExc_SyntaxError, align 8, !tbaa !19
  %71 = getelementptr inbounds nuw i8, ptr %18, i64 20
  %72 = load i32, ptr %71, align 4, !tbaa !79
  %73 = sext i32 %72 to i64
  %74 = getelementptr inbounds nuw i8, ptr %18, i64 28
  %75 = load i32, ptr %74, align 4, !tbaa !84
  %76 = sext i32 %75 to i64
  tail call void (ptr, ptr, i64, i64, i64, i64, ptr, ...) @RAISE_ERROR_KNOWN_LOCATION(ptr noundef nonnull %0, ptr noundef %70, i64 noundef %73, i64 noundef -1, i64 noundef %76, i64 noundef -1, ptr noundef nonnull @.str.7, ptr noundef %69)
  %77 = load i32, ptr %69, align 8, !tbaa !18
  %.not.i35 = icmp sgt i32 %77, -1
  br i1 %.not.i35, label %78, label %Py_DECREF.exit36

78:                                               ; preds = %68
  %79 = add nsw i32 %77, -1
  store i32 %79, ptr %69, align 8, !tbaa !18
  %80 = icmp eq i32 %79, 0
  br i1 %80, label %81, label %Py_DECREF.exit36

81:                                               ; preds = %78
  tail call void @_Py_Dealloc(ptr noundef nonnull %69) #13
  br label %Py_DECREF.exit36

82:                                               ; preds = %parsenumber.exit
  %83 = getelementptr inbounds nuw i8, ptr %0, i64 32
  %84 = load ptr, ptr %83, align 8, !tbaa !28
  %85 = tail call i32 @_PyArena_AddPyObject(ptr noundef %84, ptr noundef nonnull %.015.i) #13
  %86 = icmp slt i32 %85, 0
  br i1 %86, label %87, label %94

87:                                               ; preds = %82
  %88 = load i32, ptr %.015.i, align 8, !tbaa !18
  %.not.i = icmp sgt i32 %88, -1
  br i1 %.not.i, label %89, label %Py_DECREF.exit

89:                                               ; preds = %87
  %90 = add nsw i32 %88, -1
  store i32 %90, ptr %.015.i, align 8, !tbaa !18
  %91 = icmp eq i32 %90, 0
  br i1 %91, label %92, label %Py_DECREF.exit

92:                                               ; preds = %89
  tail call void @_Py_Dealloc(ptr noundef nonnull %.015.i) #13
  br label %Py_DECREF.exit

Py_DECREF.exit:                                   ; preds = %87, %89, %92
  %93 = getelementptr inbounds nuw i8, ptr %0, i64 96
  store i32 1, ptr %93, align 8, !tbaa !87
  br label %Py_DECREF.exit36

94:                                               ; preds = %82
  %95 = getelementptr inbounds nuw i8, ptr %18, i64 20
  %96 = load i32, ptr %95, align 4, !tbaa !79
  %97 = getelementptr inbounds nuw i8, ptr %18, i64 24
  %98 = load i32, ptr %97, align 8, !tbaa !83
  %99 = getelementptr inbounds nuw i8, ptr %18, i64 28
  %100 = load i32, ptr %99, align 4, !tbaa !84
  %101 = getelementptr inbounds nuw i8, ptr %18, i64 32
  %102 = load i32, ptr %101, align 8, !tbaa !85
  %103 = load ptr, ptr %83, align 8, !tbaa !28
  %104 = tail call ptr @_PyAST_Constant(ptr noundef nonnull %.015.i, ptr noundef null, i32 noundef %96, i32 noundef %98, i32 noundef %100, i32 noundef %102, ptr noundef %103) #13
  br label %Py_DECREF.exit36

Py_DECREF.exit36:                                 ; preds = %12, %10, %81, %78, %68, %26, %34, %58, %64, %94, %Py_DECREF.exit
  %.0 = phi ptr [ null, %26 ], [ %37, %34 ], [ null, %Py_DECREF.exit ], [ %104, %94 ], [ null, %64 ], [ null, %58 ], [ null, %68 ], [ null, %78 ], [ null, %81 ], [ null, %10 ], [ null, %12 ]
  ret ptr %.0
}